target datalayout = "e-m:e-p270:32:32-p271:32:32-p272:64:64-i64:64-i128:128-f80:128-n8:16:32:64-S128"
target triple = "x86_64-pc-linux-gnu"

%class.NavMeshTesterTool = type { %struct.SampleTool, ptr, ptr, ptr, %class.dtQueryFilter, i32, i32, i32, i32, i32, [256 x i32], [256 x i32], i32, [768 x float], [256 x i8], [256 x i32], i32, [3 x float], [6144 x float], i32, [12 x float], [192 x float], i32, i8, [3 x float], [3 x float], [3 x float], [3 x float], i8, float, float, float, i8, i8, i32, [256 x i32], i32, [3 x float], [3 x float], [3 x float], [3 x float], [30 x float], i32 }
%struct.SampleTool = type { ptr }
%class.dtQueryFilter = type { [64 x float], i16, i16 }

; Function Attrs: mustprogress nounwind uwtable
define linkonce_odr dso_local void @_Z7dtVcopyPfPKf(ptr noundef %0, ptr noundef %1) #1 comdat {
  %3 = alloca ptr, align 8
  %4 = alloca ptr, align 8
  store ptr %0, ptr %3, align 8
  store ptr %1, ptr %4, align 8
  %5 = load ptr, ptr %4, align 8
  %6 = getelementptr inbounds float, ptr %5, i64 0
  %7 = load float, ptr %6, align 4
  %8 = load ptr, ptr %3, align 8
  %9 = getelementptr inbounds float, ptr %8, i64 0
  store float %7, ptr %9, align 4
  %10 = load ptr, ptr %4, align 8
  %11 = getelementptr inbounds float, ptr %10, i64 1
  %12 = load float, ptr %11, align 4
  %13 = load ptr, ptr %3, align 8
  %14 = getelementptr inbounds float, ptr %13, i64 1
  store float %12, ptr %14, align 4
  %15 = load ptr, ptr %4, align 8
  %16 = getelementptr inbounds float, ptr %15, i64 2
  %17 = load float, ptr %16, align 4
  %18 = load ptr, ptr %3, align 8
  %19 = getelementptr inbounds float, ptr %18, i64 2
  store float %17, ptr %19, align 4
  ret void
}

; Function Attrs: mustprogress uwtable
define dso_local void @_ZN17NavMeshTesterTool11handleClickEPKfS1_b(ptr noundef nonnull align 8 dereferenceable(33408) %0, ptr noundef %1, ptr noundef %2, i1 noundef zeroext %3) unnamed_addr #0 align 2 {
  %5 = alloca ptr, align 8
  %6 = alloca ptr, align 8
  %7 = alloca ptr, align 8
  %8 = alloca i8, align 1
  store ptr %0, ptr %5, align 8
  store ptr %1, ptr %6, align 8
  store ptr %2, ptr %7, align 8
  %9 = zext i1 %3 to i8
  store i8 %9, ptr %8, align 1
  %10 = load ptr, ptr %5, align 8
  %11 = load i8, ptr %8, align 1
  %12 = trunc i8 %11 to i1
  br i1 %12, label %13, label %18

13:                                               ; preds = %4
  %14 = getelementptr inbounds %class.NavMeshTesterTool, ptr %10, i32 0, i32 32
  store i8 1, ptr %14, align 8
  %15 = getelementptr inbounds %class.NavMeshTesterTool, ptr %10, i32 0, i32 24
  %16 = getelementptr inbounds [3 x float], ptr %15, i64 0, i64 0
  %17 = load ptr, ptr %7, align 8
  call void @_Z7dtVcopyPfPKf(ptr noundef %16, ptr noundef %17)
  br label %23

18:                                               ; preds = %4
  %19 = getelementptr inbounds %class.NavMeshTesterTool, ptr %10, i32 0, i32 33
  store i8 1, ptr %19, align 1
  %20 = getelementptr inbounds %class.NavMeshTesterTool, ptr %10, i32 0, i32 25
  %21 = getelementptr inbounds [3 x float], ptr %20, i64 0, i64 0
  %22 = load ptr, ptr %7, align 8
  call void @_Z7dtVcopyPfPKf(ptr noundef %21, ptr noundef %22)
  br label %23

23:                                               ; preds = %18, %13
  call void @_ZN17NavMeshTesterTool6recalcEv(ptr noundef nonnull align 8 dereferenceable(33408) %10)
  ret void
}