; Function Attrs: mustprogress uwtable
define dso_local void @_ZN17NavMeshTesterTool11handleClickEPKfS1_b(ptr noundef nonnull align 8 dereferenceable(33408) %0, ptr nocapture readnone %1, ptr nocapture noundef readonly %2, i1 noundef zeroext %3) unnamed_addr #0 align 2 {
  br i1 %3, label %5, label %7

5:                                                ; preds = %4
  %6 = getelementptr inbounds i8, ptr %0, i64 32200
  store i8 1, ptr %6, align 8
  br label %9

7:                                                ; preds = %4
  %8 = getelementptr inbounds i8, ptr %0, i64 32201
  store i8 1, ptr %8, align 1
  br label %9

9:                                                ; preds = %7, %5
  %.sink = phi i64 [ 32148, %7 ], [ 32136, %5 ]
  %.sink6 = phi i64 [ 32152, %7 ], [ 32140, %5 ]
  %.sink4 = phi i64 [ 32156, %7 ], [ 32144, %5 ]
  %10 = getelementptr inbounds i8, ptr %2, i64 8
  %11 = getelementptr inbounds i8, ptr %2, i64 4
  %12 = getelementptr inbounds i8, ptr %0, i64 %.sink
  %13 = load float, ptr %2, align 4
  store float %13, ptr %12, align 4
  %14 = load float, ptr %11, align 4
  %15 = getelementptr inbounds i8, ptr %0, i64 %.sink6
  store float %14, ptr %15, align 4
  %16 = load float, ptr %10, align 4
  %17 = getelementptr inbounds i8, ptr %0, i64 %.sink4
  store float %16, ptr %17, align 4
  tail call void @_ZN17NavMeshTesterTool6recalcEv(ptr noundef nonnull align 8 dereferenceable(33408) %0)
  ret void
}